
MarioKart.elf:     file format elf32-avr

Sections:
Idx Name          Size      VMA       LMA       File off  Algn
  0 .data         00000000  00800200  00800200  00000640  2**0
                  CONTENTS, ALLOC, LOAD, DATA
  1 .text         000005cc  00000000  00000000  00000074  2**1
                  CONTENTS, ALLOC, LOAD, READONLY, CODE
  2 .bss          00000009  00800200  00800200  00000640  2**0
                  ALLOC
  3 .comment      00000030  00000000  00000000  00000640  2**0
                  CONTENTS, READONLY
  4 .note.gnu.avr.deviceinfo 00000040  00000000  00000000  00000670  2**2
                  CONTENTS, READONLY
  5 .debug_aranges 000001a8  00000000  00000000  000006b0  2**0
                  CONTENTS, READONLY, DEBUGGING
  6 .debug_info   00002aa8  00000000  00000000  00000858  2**0
                  CONTENTS, READONLY, DEBUGGING
  7 .debug_abbrev 000015ef  00000000  00000000  00003300  2**0
                  CONTENTS, READONLY, DEBUGGING
  8 .debug_line   00000d35  00000000  00000000  000048ef  2**0
                  CONTENTS, READONLY, DEBUGGING
  9 .debug_frame  000003cc  00000000  00000000  00005624  2**2
                  CONTENTS, READONLY, DEBUGGING
 10 .debug_str    00000b9c  00000000  00000000  000059f0  2**0
                  CONTENTS, READONLY, DEBUGGING
 11 .debug_loc    00000af8  00000000  00000000  0000658c  2**0
                  CONTENTS, READONLY, DEBUGGING
 12 .debug_ranges 00000150  00000000  00000000  00007084  2**0
                  CONTENTS, READONLY, DEBUGGING

Disassembly of section .text:

00000000 <__vectors>:
   0:	72 c0       	rjmp	.+228    	; 0xe6 <__ctors_end>
   2:	00 00       	nop
   4:	91 c0       	rjmp	.+290    	; 0x128 <__bad_interrupt>
   6:	00 00       	nop
   8:	8f c0       	rjmp	.+286    	; 0x128 <__bad_interrupt>
   a:	00 00       	nop
   c:	8e c1       	rjmp	.+796    	; 0x32a <__vector_3>
   e:	00 00       	nop
  10:	b3 c1       	rjmp	.+870    	; 0x378 <__vector_4>
  12:	00 00       	nop
  14:	89 c0       	rjmp	.+274    	; 0x128 <__bad_interrupt>
  16:	00 00       	nop
  18:	87 c0       	rjmp	.+270    	; 0x128 <__bad_interrupt>
  1a:	00 00       	nop
  1c:	85 c0       	rjmp	.+266    	; 0x128 <__bad_interrupt>
  1e:	00 00       	nop
  20:	83 c0       	rjmp	.+262    	; 0x128 <__bad_interrupt>
  22:	00 00       	nop
  24:	81 c0       	rjmp	.+258    	; 0x128 <__bad_interrupt>
  26:	00 00       	nop
  28:	7f c0       	rjmp	.+254    	; 0x128 <__bad_interrupt>
  2a:	00 00       	nop
  2c:	7d c0       	rjmp	.+250    	; 0x128 <__bad_interrupt>
  2e:	00 00       	nop
  30:	7b c0       	rjmp	.+246    	; 0x128 <__bad_interrupt>
  32:	00 00       	nop
  34:	79 c0       	rjmp	.+242    	; 0x128 <__bad_interrupt>
  36:	00 00       	nop
  38:	77 c0       	rjmp	.+238    	; 0x128 <__bad_interrupt>
  3a:	00 00       	nop
  3c:	75 c0       	rjmp	.+234    	; 0x128 <__bad_interrupt>
  3e:	00 00       	nop
  40:	73 c0       	rjmp	.+230    	; 0x128 <__bad_interrupt>
  42:	00 00       	nop
  44:	71 c0       	rjmp	.+226    	; 0x128 <__bad_interrupt>
  46:	00 00       	nop
  48:	6f c0       	rjmp	.+222    	; 0x128 <__bad_interrupt>
  4a:	00 00       	nop
  4c:	6d c0       	rjmp	.+218    	; 0x128 <__bad_interrupt>
  4e:	00 00       	nop
  50:	6b c0       	rjmp	.+214    	; 0x128 <__bad_interrupt>
  52:	00 00       	nop
  54:	69 c0       	rjmp	.+210    	; 0x128 <__bad_interrupt>
  56:	00 00       	nop
  58:	67 c0       	rjmp	.+206    	; 0x128 <__bad_interrupt>
  5a:	00 00       	nop
  5c:	65 c0       	rjmp	.+202    	; 0x128 <__bad_interrupt>
  5e:	00 00       	nop
  60:	63 c0       	rjmp	.+198    	; 0x128 <__bad_interrupt>
  62:	00 00       	nop
  64:	61 c0       	rjmp	.+194    	; 0x128 <__bad_interrupt>
  66:	00 00       	nop
  68:	5f c0       	rjmp	.+190    	; 0x128 <__bad_interrupt>
  6a:	00 00       	nop
  6c:	5d c0       	rjmp	.+186    	; 0x128 <__bad_interrupt>
  6e:	00 00       	nop
  70:	5b c0       	rjmp	.+182    	; 0x128 <__bad_interrupt>
  72:	00 00       	nop
  74:	59 c0       	rjmp	.+178    	; 0x128 <__bad_interrupt>
  76:	00 00       	nop
  78:	57 c0       	rjmp	.+174    	; 0x128 <__bad_interrupt>
  7a:	00 00       	nop
  7c:	55 c0       	rjmp	.+170    	; 0x128 <__bad_interrupt>
  7e:	00 00       	nop
  80:	53 c0       	rjmp	.+166    	; 0x128 <__bad_interrupt>
  82:	00 00       	nop
  84:	51 c0       	rjmp	.+162    	; 0x128 <__bad_interrupt>
  86:	00 00       	nop
  88:	4f c0       	rjmp	.+158    	; 0x128 <__bad_interrupt>
  8a:	00 00       	nop
  8c:	4d c0       	rjmp	.+154    	; 0x128 <__bad_interrupt>
  8e:	00 00       	nop
  90:	4b c0       	rjmp	.+150    	; 0x128 <__bad_interrupt>
  92:	00 00       	nop
  94:	49 c0       	rjmp	.+146    	; 0x128 <__bad_interrupt>
  96:	00 00       	nop
  98:	47 c0       	rjmp	.+142    	; 0x128 <__bad_interrupt>
  9a:	00 00       	nop
  9c:	45 c0       	rjmp	.+138    	; 0x128 <__bad_interrupt>
  9e:	00 00       	nop
  a0:	43 c0       	rjmp	.+134    	; 0x128 <__bad_interrupt>
  a2:	00 00       	nop
  a4:	41 c0       	rjmp	.+130    	; 0x128 <__bad_interrupt>
  a6:	00 00       	nop
  a8:	3f c0       	rjmp	.+126    	; 0x128 <__bad_interrupt>
  aa:	00 00       	nop
  ac:	3d c0       	rjmp	.+122    	; 0x128 <__bad_interrupt>
  ae:	00 00       	nop
  b0:	3b c0       	rjmp	.+118    	; 0x128 <__bad_interrupt>
  b2:	00 00       	nop
  b4:	39 c0       	rjmp	.+114    	; 0x128 <__bad_interrupt>
  b6:	00 00       	nop
  b8:	37 c0       	rjmp	.+110    	; 0x128 <__bad_interrupt>
  ba:	00 00       	nop
  bc:	35 c0       	rjmp	.+106    	; 0x128 <__bad_interrupt>
  be:	00 00       	nop
  c0:	33 c0       	rjmp	.+102    	; 0x128 <__bad_interrupt>
  c2:	00 00       	nop
  c4:	31 c0       	rjmp	.+98     	; 0x128 <__bad_interrupt>
  c6:	00 00       	nop
  c8:	2f c0       	rjmp	.+94     	; 0x128 <__bad_interrupt>
  ca:	00 00       	nop
  cc:	2d c0       	rjmp	.+90     	; 0x128 <__bad_interrupt>
  ce:	00 00       	nop
  d0:	2b c0       	rjmp	.+86     	; 0x128 <__bad_interrupt>
  d2:	00 00       	nop
  d4:	29 c0       	rjmp	.+82     	; 0x128 <__bad_interrupt>
  d6:	00 00       	nop
  d8:	27 c0       	rjmp	.+78     	; 0x128 <__bad_interrupt>
  da:	00 00       	nop
  dc:	25 c0       	rjmp	.+74     	; 0x128 <__bad_interrupt>
  de:	00 00       	nop
  e0:	23 c0       	rjmp	.+70     	; 0x128 <__bad_interrupt>
	...

000000e4 <__ctors_start>:
  e4:	e3 01       	movw	r28, r6

000000e6 <__ctors_end>:
  e6:	11 24       	eor	r1, r1
  e8:	1f be       	out	0x3f, r1	; 63
  ea:	cf ef       	ldi	r28, 0xFF	; 255
  ec:	d1 e2       	ldi	r29, 0x21	; 33
  ee:	de bf       	out	0x3e, r29	; 62
  f0:	cd bf       	out	0x3d, r28	; 61
  f2:	00 e0       	ldi	r16, 0x00	; 0
  f4:	0c bf       	out	0x3c, r16	; 60

000000f6 <__do_clear_bss>:
  f6:	22 e0       	ldi	r18, 0x02	; 2
  f8:	a0 e0       	ldi	r26, 0x00	; 0
  fa:	b2 e0       	ldi	r27, 0x02	; 2
  fc:	01 c0       	rjmp	.+2      	; 0x100 <.do_clear_bss_start>

000000fe <.do_clear_bss_loop>:
  fe:	1d 92       	st	X+, r1

00000100 <.do_clear_bss_start>:
 100:	a9 30       	cpi	r26, 0x09	; 9
 102:	b2 07       	cpc	r27, r18
 104:	e1 f7       	brne	.-8      	; 0xfe <.do_clear_bss_loop>

00000106 <__do_global_ctors>:
 106:	10 e0       	ldi	r17, 0x00	; 0
 108:	c3 e7       	ldi	r28, 0x73	; 115
 10a:	d0 e0       	ldi	r29, 0x00	; 0
 10c:	00 e0       	ldi	r16, 0x00	; 0
 10e:	05 c0       	rjmp	.+10     	; 0x11a <__do_global_ctors+0x14>
 110:	21 97       	sbiw	r28, 0x01	; 1
 112:	01 09       	sbc	r16, r1
 114:	80 2f       	mov	r24, r16
 116:	fe 01       	movw	r30, r28
 118:	4f d2       	rcall	.+1182   	; 0x5b8 <__tablejump2__>
 11a:	c2 37       	cpi	r28, 0x72	; 114
 11c:	d1 07       	cpc	r29, r17
 11e:	80 e0       	ldi	r24, 0x00	; 0
 120:	08 07       	cpc	r16, r24
 122:	b1 f7       	brne	.-20     	; 0x110 <__do_global_ctors+0xa>
 124:	a0 d0       	rcall	.+320    	; 0x266 <main>
 126:	50 c2       	rjmp	.+1184   	; 0x5c8 <_exit>

00000128 <__bad_interrupt>:
 128:	6b cf       	rjmp	.-298    	; 0x0 <__vectors>

0000012a <_ZN12DriveControlC1Ev>:

// ## MotorDriver ##
#include "..\MotorDriver\Motor.h"

// default constructor
DriveControl::DriveControl()
 12a:	0f 93       	push	r16
 12c:	1f 93       	push	r17
 12e:	cf 93       	push	r28
 130:	df 93       	push	r29
 132:	00 d0       	rcall	.+0      	; 0x134 <_ZN12DriveControlC1Ev+0xa>
 134:	1f 92       	push	r1
 136:	1f 92       	push	r1
 138:	cd b7       	in	r28, 0x3d	; 61
 13a:	de b7       	in	r29, 0x3e	; 62
 13c:	8c 01       	movw	r16, r24
 13e:	8b d1       	rcall	.+790    	; 0x456 <_ZN5SoundC1Ev>
 140:	c8 01       	movw	r24, r16
 142:	01 96       	adiw	r24, 0x01	; 1
 144:	7d d0       	rcall	.+250    	; 0x240 <_ZN10FrontLightC1Ev>
 146:	c8 01       	movw	r24, r16
 148:	02 96       	adiw	r24, 0x02	; 2
 14a:	70 d0       	rcall	.+224    	; 0x22c <_ZN9BackLightC1Ev>
 14c:	c8 01       	movw	r24, r16
 14e:	03 96       	adiw	r24, 0x03	; 3
 150:	40 d1       	rcall	.+640    	; 0x3d2 <_ZN5MotorC1Ev>
{
	Sound sound;
 152:	ce 01       	movw	r24, r28
 154:	05 96       	adiw	r24, 0x05	; 5
 156:	7f d1       	rcall	.+766    	; 0x456 <_ZN5SoundC1Ev>
	sound_ = sound;
	
	FrontLight frontLight;
 158:	ce 01       	movw	r24, r28
 15a:	04 96       	adiw	r24, 0x04	; 4
 15c:	71 d0       	rcall	.+226    	; 0x240 <_ZN10FrontLightC1Ev>
	frontLight_ = frontLight;
	
	BackLight backLight;
 15e:	ce 01       	movw	r24, r28
 160:	03 96       	adiw	r24, 0x03	; 3
 162:	64 d0       	rcall	.+200    	; 0x22c <_ZN9BackLightC1Ev>
 164:	ce 01       	movw	r24, r28
	backLight_ = backLight;
	
	Motor motor;
 166:	01 96       	adiw	r24, 0x01	; 1
 168:	34 d1       	rcall	.+616    	; 0x3d2 <_ZN5MotorC1Ev>
 16a:	89 81       	ldd	r24, Y+1	; 0x01
 16c:	9a 81       	ldd	r25, Y+2	; 0x02
	motor_ = motor;
 16e:	f8 01       	movw	r30, r16
 170:	94 83       	std	Z+4, r25	; 0x04
 172:	83 83       	std	Z+3, r24	; 0x03
 174:	0f 90       	pop	r0
 176:	0f 90       	pop	r0
} //DriveControl
 178:	0f 90       	pop	r0
 17a:	0f 90       	pop	r0
 17c:	0f 90       	pop	r0
 17e:	df 91       	pop	r29
 180:	cf 91       	pop	r28
 182:	1f 91       	pop	r17
 184:	0f 91       	pop	r16
 186:	08 95       	ret

00000188 <_ZN12DriveControl16reflexControllerEi>:
 188:	cf 93       	push	r28
 18a:	df 93       	push	r29

void DriveControl::reflexController(int reflexCount)
{
 18c:	ec 01       	movw	r28, r24
	reflexCount_ = reflexCount;
 18e:	7e 83       	std	Y+6, r23	; 0x06
 190:	6d 83       	std	Y+5, r22	; 0x05
	if (reflexCount_ >= 1 && 10 >= reflexCount_) {
 192:	61 50       	subi	r22, 0x01	; 1
 194:	71 09       	sbc	r23, r1
 196:	6a 30       	cpi	r22, 0x0A	; 10
 198:	71 05       	cpc	r23, r1
 19a:	18 f4       	brcc	.+6      	; 0x1a2 <_ZN12DriveControl16reflexControllerEi+0x1a>
		sound_.playSound(2);
 19c:	62 e0       	ldi	r22, 0x02	; 2
 19e:	70 e0       	ldi	r23, 0x00	; 0
 1a0:	9c d1       	rcall	.+824    	; 0x4da <_ZN5Sound9playSoundEi>
	}
	
	if (reflexCount_ == 11) {
 1a2:	8d 81       	ldd	r24, Y+5	; 0x05
 1a4:	9e 81       	ldd	r25, Y+6	; 0x06
 1a6:	0b 97       	sbiw	r24, 0x0b	; 11
 1a8:	21 f4       	brne	.+8      	; 0x1b2 <_ZN12DriveControl16reflexControllerEi+0x2a>
		sound_.playSound(3);
 1aa:	63 e0       	ldi	r22, 0x03	; 3
 1ac:	70 e0       	ldi	r23, 0x00	; 0
 1ae:	ce 01       	movw	r24, r28
 1b0:	94 d1       	rcall	.+808    	; 0x4da <_ZN5Sound9playSoundEi>
	}
	
	switch (reflexCount_)
 1b2:	8d 81       	ldd	r24, Y+5	; 0x05
 1b4:	9e 81       	ldd	r25, Y+6	; 0x06
 1b6:	84 30       	cpi	r24, 0x04	; 4
 1b8:	91 05       	cpc	r25, r1
 1ba:	e1 f0       	breq	.+56     	; 0x1f4 <_ZN12DriveControl16reflexControllerEi+0x6c>
 1bc:	34 f4       	brge	.+12     	; 0x1ca <_ZN12DriveControl16reflexControllerEi+0x42>
 1be:	82 30       	cpi	r24, 0x02	; 2
 1c0:	91 05       	cpc	r25, r1
 1c2:	61 f0       	breq	.+24     	; 0x1dc <_ZN12DriveControl16reflexControllerEi+0x54>
 1c4:	03 97       	sbiw	r24, 0x03	; 3
 1c6:	81 f0       	breq	.+32     	; 0x1e8 <_ZN12DriveControl16reflexControllerEi+0x60>
 1c8:	2e c0       	rjmp	.+92     	; 0x226 <_ZN12DriveControl16reflexControllerEi+0x9e>
 1ca:	88 30       	cpi	r24, 0x08	; 8
 1cc:	91 05       	cpc	r25, r1
 1ce:	01 f1       	breq	.+64     	; 0x210 <_ZN12DriveControl16reflexControllerEi+0x88>
 1d0:	8b 30       	cpi	r24, 0x0B	; 11
 1d2:	91 05       	cpc	r25, r1
 1d4:	29 f1       	breq	.+74     	; 0x220 <_ZN12DriveControl16reflexControllerEi+0x98>
 1d6:	06 97       	sbiw	r24, 0x06	; 6
 1d8:	31 f5       	brne	.+76     	; 0x226 <_ZN12DriveControl16reflexControllerEi+0x9e>
 1da:	12 c0       	rjmp	.+36     	; 0x200 <_ZN12DriveControl16reflexControllerEi+0x78>
	{
		case 2:
			motor_.driveForward(100);
 1dc:	64 e6       	ldi	r22, 0x64	; 100
 1de:	70 e0       	ldi	r23, 0x00	; 0
 1e0:	ce 01       	movw	r24, r28
 1e2:	03 96       	adiw	r24, 0x03	; 3
 1e4:	0a d1       	rcall	.+532    	; 0x3fa <_ZN5Motor12driveForwardEi>
			break;
 1e6:	1f c0       	rjmp	.+62     	; 0x226 <_ZN12DriveControl16reflexControllerEi+0x9e>
		case 3:
			motor_.driveForward(60);
 1e8:	6c e3       	ldi	r22, 0x3C	; 60
 1ea:	70 e0       	ldi	r23, 0x00	; 0
 1ec:	ce 01       	movw	r24, r28
 1ee:	03 96       	adiw	r24, 0x03	; 3
 1f0:	04 d1       	rcall	.+520    	; 0x3fa <_ZN5Motor12driveForwardEi>
			break;
 1f2:	19 c0       	rjmp	.+50     	; 0x226 <_ZN12DriveControl16reflexControllerEi+0x9e>
		case 4:
			motor_.driveForward(100);
 1f4:	64 e6       	ldi	r22, 0x64	; 100
 1f6:	70 e0       	ldi	r23, 0x00	; 0
 1f8:	ce 01       	movw	r24, r28
 1fa:	03 96       	adiw	r24, 0x03	; 3
			break;
 1fc:	fe d0       	rcall	.+508    	; 0x3fa <_ZN5Motor12driveForwardEi>
		case 6:
			motor_.driveStop();
 1fe:	13 c0       	rjmp	.+38     	; 0x226 <_ZN12DriveControl16reflexControllerEi+0x9e>
 200:	23 96       	adiw	r28, 0x03	; 3
 202:	ce 01       	movw	r24, r28
			motor_.driveBackwards(20);
 204:	23 d1       	rcall	.+582    	; 0x44c <_ZN5Motor9driveStopEv>
 206:	64 e1       	ldi	r22, 0x14	; 20
 208:	70 e0       	ldi	r23, 0x00	; 0
 20a:	ce 01       	movw	r24, r28
			break;
		case 8:
			motor_.driveStop();
 20c:	0a d1       	rcall	.+532    	; 0x422 <_ZN5Motor14driveBackwardsEi>
 20e:	0b c0       	rjmp	.+22     	; 0x226 <_ZN12DriveControl16reflexControllerEi+0x9e>
 210:	23 96       	adiw	r28, 0x03	; 3
			motor_.driveForward(100);
 212:	ce 01       	movw	r24, r28
 214:	1b d1       	rcall	.+566    	; 0x44c <_ZN5Motor9driveStopEv>
 216:	64 e6       	ldi	r22, 0x64	; 100
 218:	70 e0       	ldi	r23, 0x00	; 0
 21a:	ce 01       	movw	r24, r28
			break;
 21c:	ee d0       	rcall	.+476    	; 0x3fa <_ZN5Motor12driveForwardEi>
		case 11:
			motor_.driveStop();
 21e:	03 c0       	rjmp	.+6      	; 0x226 <_ZN12DriveControl16reflexControllerEi+0x9e>
 220:	ce 01       	movw	r24, r28
 222:	03 96       	adiw	r24, 0x03	; 3
 224:	13 d1       	rcall	.+550    	; 0x44c <_ZN5Motor9driveStopEv>
			break;
	}
	
}
 226:	df 91       	pop	r29
 228:	cf 91       	pop	r28
 22a:	08 95       	ret

0000022c <_ZN9BackLightC1Ev>:
{
	// Mode = 3 (PWM, Phase Correct, 10 bit)
	// Set OC1A on match down counting / Clear OC1A on match up counting
	// Set OC1B on match down counting / Clear OCBA on match up counting
	// Clock prescaler = 1
	TCCR1A = 0b10100011;
 22c:	83 ea       	ldi	r24, 0xA3	; 163
 22e:	80 93 80 00 	sts	0x0080, r24	; 0x800080 <__TEXT_REGION_LENGTH__+0x7c0080>
	TCCR1B = 0b00000001;
 232:	81 e0       	ldi	r24, 0x01	; 1
 234:	80 93 81 00 	sts	0x0081, r24	; 0x800081 <__TEXT_REGION_LENGTH__+0x7c0081>
		
	//Configure PORTB as output
	//Clear PORTB
	DDRB=0xFF;
 238:	8f ef       	ldi	r24, 0xFF	; 255
 23a:	84 b9       	out	0x04, r24	; 4
	PORTB=0x00;
 23c:	15 b8       	out	0x05, r1	; 5
 23e:	08 95       	ret

00000240 <_ZN10FrontLightC1Ev>:
{
	// Mode = 3 (PWM, Phase Correct, 10 bit)
	// Set OC1A on match down counting / Clear OC1A on match up counting
	// Set OC1B on match down counting / Clear OCBA on match up counting
	// Clock prescaler = 1
	TCCR1A = 0b10100011;
 240:	83 ea       	ldi	r24, 0xA3	; 163
 242:	80 93 80 00 	sts	0x0080, r24	; 0x800080 <__TEXT_REGION_LENGTH__+0x7c0080>
	TCCR1B = 0b00000001;
 246:	81 e0       	ldi	r24, 0x01	; 1
 248:	80 93 81 00 	sts	0x0081, r24	; 0x800081 <__TEXT_REGION_LENGTH__+0x7c0081>
	
	//Configure PORTB as output
	//Clear PORTB
	DDRB=0xFF;
 24c:	8f ef       	ldi	r24, 0xFF	; 255
 24e:	84 b9       	out	0x04, r24	; 4
	PORTB=0x00;
 250:	15 b8       	out	0x05, r1	; 5
 252:	08 95       	ret

00000254 <_Z41__static_initialization_and_destruction_0ii>:

void awaitStartButton()
{
	INIT_BUTTON_DDR = 0x00;
	while((~INIT_BUTTON_PIN & INIT_BUTTON_MASK) == 0) {}
	ledfun();
 254:	01 97       	sbiw	r24, 0x01	; 1
 256:	31 f4       	brne	.+12     	; 0x264 <_Z41__static_initialization_and_destruction_0ii+0x10>
 258:	6f 3f       	cpi	r22, 0xFF	; 255
 25a:	7f 4f       	sbci	r23, 0xFF	; 255
 25c:	19 f4       	brne	.+6      	; 0x264 <_Z41__static_initialization_and_destruction_0ii+0x10>
 25e:	80 e0       	ldi	r24, 0x00	; 0
 260:	92 e0       	ldi	r25, 0x02	; 2
 262:	63 cf       	rjmp	.-314    	; 0x12a <_ZN12DriveControlC1Ev>
 264:	08 95       	ret

00000266 <main>:
 266:	cf 93       	push	r28
 268:	df 93       	push	r29
 26a:	1f 92       	push	r1
 26c:	1f 92       	push	r1
 26e:	cd b7       	in	r28, 0x3d	; 61
 270:	de b7       	in	r29, 0x3e	; 62
 272:	ce 01       	movw	r24, r28
 274:	01 96       	adiw	r24, 0x01	; 1
 276:	ad d0       	rcall	.+346    	; 0x3d2 <_ZN5MotorC1Ev>
 278:	64 e6       	ldi	r22, 0x64	; 100
 27a:	70 e0       	ldi	r23, 0x00	; 0
 27c:	ce 01       	movw	r24, r28
 27e:	01 96       	adiw	r24, 0x01	; 1
 280:	bc d0       	rcall	.+376    	; 0x3fa <_ZN5Motor12driveForwardEi>
 282:	2f ef       	ldi	r18, 0xFF	; 255
 284:	83 ed       	ldi	r24, 0xD3	; 211
 286:	90 e3       	ldi	r25, 0x30	; 48
 288:	21 50       	subi	r18, 0x01	; 1
 28a:	80 40       	sbci	r24, 0x00	; 0
 28c:	90 40       	sbci	r25, 0x00	; 0
 28e:	e1 f7       	brne	.-8      	; 0x288 <main+0x22>
 290:	00 c0       	rjmp	.+0      	; 0x292 <main+0x2c>
 292:	00 00       	nop
 294:	64 e1       	ldi	r22, 0x14	; 20
 296:	70 e0       	ldi	r23, 0x00	; 0
 298:	ce 01       	movw	r24, r28
 29a:	01 96       	adiw	r24, 0x01	; 1
 29c:	c2 d0       	rcall	.+388    	; 0x422 <_ZN5Motor14driveBackwardsEi>
 29e:	2f ef       	ldi	r18, 0xFF	; 255
 2a0:	83 ed       	ldi	r24, 0xD3	; 211
 2a2:	90 e3       	ldi	r25, 0x30	; 48
 2a4:	21 50       	subi	r18, 0x01	; 1
 2a6:	80 40       	sbci	r24, 0x00	; 0
 2a8:	90 40       	sbci	r25, 0x00	; 0
 2aa:	e1 f7       	brne	.-8      	; 0x2a4 <main+0x3e>
 2ac:	00 c0       	rjmp	.+0      	; 0x2ae <main+0x48>
 2ae:	00 00       	nop
 2b0:	2f ef       	ldi	r18, 0xFF	; 255
 2b2:	83 ed       	ldi	r24, 0xD3	; 211
 2b4:	90 e3       	ldi	r25, 0x30	; 48
 2b6:	21 50       	subi	r18, 0x01	; 1
 2b8:	80 40       	sbci	r24, 0x00	; 0
 2ba:	90 40       	sbci	r25, 0x00	; 0
 2bc:	e1 f7       	brne	.-8      	; 0x2b6 <main+0x50>
 2be:	00 c0       	rjmp	.+0      	; 0x2c0 <main+0x5a>
 2c0:	00 00       	nop
 2c2:	da cf       	rjmp	.-76     	; 0x278 <main+0x12>

000002c4 <_Z18startReflexSensorsv>:
 2c4:	8d b3       	in	r24, 0x1d	; 29
 2c6:	8c 60       	ori	r24, 0x0C	; 12
 2c8:	8d bb       	out	0x1d, r24	; 29
 2ca:	e9 e6       	ldi	r30, 0x69	; 105
 2cc:	f0 e0       	ldi	r31, 0x00	; 0
 2ce:	80 81       	ld	r24, Z
 2d0:	80 6f       	ori	r24, 0xF0	; 240
 2d2:	80 83       	st	Z, r24
 2d4:	08 95       	ret

000002d6 <_Z17stopReflexSensorsv>:
 2d6:	8d b3       	in	r24, 0x1d	; 29
 2d8:	83 7f       	andi	r24, 0xF3	; 243
 2da:	8d bb       	out	0x1d, r24	; 29
 2dc:	e9 e6       	ldi	r30, 0x69	; 105
 2de:	f0 e0       	ldi	r31, 0x00	; 0
 2e0:	80 81       	ld	r24, Z
 2e2:	8f 70       	andi	r24, 0x0F	; 15
 2e4:	80 83       	st	Z, r24
 2e6:	08 95       	ret

000002e8 <_Z6reflexv>:
 2e8:	f6 df       	rcall	.-20     	; 0x2d6 <_Z17stopReflexSensorsv>
 2ea:	80 91 07 02 	lds	r24, 0x0207	; 0x800207 <reflexCount>
 2ee:	90 91 08 02 	lds	r25, 0x0208	; 0x800208 <reflexCount+0x1>
 2f2:	01 96       	adiw	r24, 0x01	; 1
 2f4:	90 93 08 02 	sts	0x0208, r25	; 0x800208 <reflexCount+0x1>
 2f8:	80 93 07 02 	sts	0x0207, r24	; 0x800207 <reflexCount>
 2fc:	60 91 07 02 	lds	r22, 0x0207	; 0x800207 <reflexCount>
 300:	70 91 08 02 	lds	r23, 0x0208	; 0x800208 <reflexCount+0x1>
 304:	80 e0       	ldi	r24, 0x00	; 0
 306:	92 e0       	ldi	r25, 0x02	; 2
 308:	3f df       	rcall	.-386    	; 0x188 <_ZN12DriveControl16reflexControllerEi>
 30a:	80 91 07 02 	lds	r24, 0x0207	; 0x800207 <reflexCount>
 30e:	90 91 08 02 	lds	r25, 0x0208	; 0x800208 <reflexCount+0x1>
 312:	85 b9       	out	0x05, r24	; 5
 314:	2f ef       	ldi	r18, 0xFF	; 255
 316:	87 e8       	ldi	r24, 0x87	; 135
 318:	93 e1       	ldi	r25, 0x13	; 19
 31a:	21 50       	subi	r18, 0x01	; 1
 31c:	80 40       	sbci	r24, 0x00	; 0
 31e:	90 40       	sbci	r25, 0x00	; 0
 320:	e1 f7       	brne	.-8      	; 0x31a <_Z6reflexv+0x32>
 322:	00 c0       	rjmp	.+0      	; 0x324 <_Z6reflexv+0x3c>
 324:	00 00       	nop
 326:	ce cf       	rjmp	.-100    	; 0x2c4 <_Z18startReflexSensorsv>
 328:	08 95       	ret

0000032a <__vector_3>:
 32a:	1f 92       	push	r1
 32c:	0f 92       	push	r0
 32e:	0f b6       	in	r0, 0x3f	; 63
 330:	0f 92       	push	r0
 332:	11 24       	eor	r1, r1
 334:	0b b6       	in	r0, 0x3b	; 59
 336:	0f 92       	push	r0
 338:	2f 93       	push	r18
 33a:	3f 93       	push	r19
 33c:	4f 93       	push	r20
 33e:	5f 93       	push	r21
 340:	6f 93       	push	r22
 342:	7f 93       	push	r23
 344:	8f 93       	push	r24
 346:	9f 93       	push	r25
 348:	af 93       	push	r26
 34a:	bf 93       	push	r27
 34c:	ef 93       	push	r30
 34e:	ff 93       	push	r31
 350:	cb df       	rcall	.-106    	; 0x2e8 <_Z6reflexv>
 352:	ff 91       	pop	r31
 354:	ef 91       	pop	r30
 356:	bf 91       	pop	r27
 358:	af 91       	pop	r26
 35a:	9f 91       	pop	r25
 35c:	8f 91       	pop	r24
 35e:	7f 91       	pop	r23
 360:	6f 91       	pop	r22
 362:	5f 91       	pop	r21
 364:	4f 91       	pop	r20
 366:	3f 91       	pop	r19
 368:	2f 91       	pop	r18
 36a:	0f 90       	pop	r0
 36c:	0b be       	out	0x3b, r0	; 59
 36e:	0f 90       	pop	r0
 370:	0f be       	out	0x3f, r0	; 63
 372:	0f 90       	pop	r0
 374:	1f 90       	pop	r1
 376:	18 95       	reti

00000378 <__vector_4>:
 378:	1f 92       	push	r1
 37a:	0f 92       	push	r0
 37c:	0f b6       	in	r0, 0x3f	; 63
 37e:	0f 92       	push	r0
 380:	11 24       	eor	r1, r1
 382:	0b b6       	in	r0, 0x3b	; 59
 384:	0f 92       	push	r0
 386:	2f 93       	push	r18
 388:	3f 93       	push	r19
 38a:	4f 93       	push	r20
 38c:	5f 93       	push	r21
 38e:	6f 93       	push	r22
 390:	7f 93       	push	r23
 392:	8f 93       	push	r24
 394:	9f 93       	push	r25
 396:	af 93       	push	r26
 398:	bf 93       	push	r27
 39a:	ef 93       	push	r30
 39c:	ff 93       	push	r31
 39e:	a4 df       	rcall	.-184    	; 0x2e8 <_Z6reflexv>
 3a0:	ff 91       	pop	r31
 3a2:	ef 91       	pop	r30
 3a4:	bf 91       	pop	r27
 3a6:	af 91       	pop	r26
 3a8:	9f 91       	pop	r25
 3aa:	8f 91       	pop	r24
 3ac:	7f 91       	pop	r23
 3ae:	6f 91       	pop	r22
 3b0:	5f 91       	pop	r21
 3b2:	4f 91       	pop	r20
 3b4:	3f 91       	pop	r19
 3b6:	2f 91       	pop	r18
 3b8:	0f 90       	pop	r0
 3ba:	0b be       	out	0x3b, r0	; 59
 3bc:	0f 90       	pop	r0
 3be:	0f be       	out	0x3f, r0	; 63
 3c0:	0f 90       	pop	r0
 3c2:	1f 90       	pop	r1
 3c4:	18 95       	reti

000003c6 <_GLOBAL__sub_I_reflexCount>:

		_delay_ms(20);
	}

	PORTB = 0;
}
 3c6:	6f ef       	ldi	r22, 0xFF	; 255
 3c8:	7f ef       	ldi	r23, 0xFF	; 255
 3ca:	81 e0       	ldi	r24, 0x01	; 1
 3cc:	90 e0       	ldi	r25, 0x00	; 0
 3ce:	42 cf       	rjmp	.-380    	; 0x254 <_Z41__static_initialization_and_destruction_0ii>
 3d0:	08 95       	ret

000003d2 <_ZN5MotorC1Ev>:
	// mode 3
	// 120 Hz (cirka)
	// 10 bit
	// 65 -> 64 prescaler (beregnet i cheatsheet)
	// på port b
	TCCR4A = 0b00100011; // tabel 17-4, clear OCnA on compare match.
 3d2:	83 e2       	ldi	r24, 0x23	; 35
 3d4:	80 93 a0 00 	sts	0x00A0, r24	; 0x8000a0 <__TEXT_REGION_LENGTH__+0x7c00a0>
	TCCR4B = 0b00000011; // 64 prescaling
 3d8:	83 e0       	ldi	r24, 0x03	; 3
 3da:	80 93 a1 00 	sts	0x00A1, r24	; 0x8000a1 <__TEXT_REGION_LENGTH__+0x7c00a1>
	
	// PWM på PH4
	DDRH |= (1 << PH4);
 3de:	e1 e0       	ldi	r30, 0x01	; 1
 3e0:	f1 e0       	ldi	r31, 0x01	; 1
 3e2:	80 81       	ld	r24, Z
 3e4:	80 61       	ori	r24, 0x10	; 16
 3e6:	80 83       	st	Z, r24
	
	// Direction på PH3
	DDRH |= (1 << PH3);
 3e8:	80 81       	ld	r24, Z
 3ea:	88 60       	ori	r24, 0x08	; 8
 3ec:	80 83       	st	Z, r24
	PORTH |= (1 << PH3);
 3ee:	e2 e0       	ldi	r30, 0x02	; 2
 3f0:	f1 e0       	ldi	r31, 0x01	; 1
 3f2:	80 81       	ld	r24, Z
 3f4:	88 60       	ori	r24, 0x08	; 8
 3f6:	80 83       	st	Z, r24
 3f8:	08 95       	ret

000003fa <_ZN5Motor12driveForwardEi>:
} //Motor

void Motor::driveForward(int speed)
{
	OCR4B = speed * 10;
 3fa:	cb 01       	movw	r24, r22
 3fc:	88 0f       	add	r24, r24
 3fe:	99 1f       	adc	r25, r25
 400:	66 0f       	add	r22, r22
 402:	77 1f       	adc	r23, r23
 404:	66 0f       	add	r22, r22
 406:	77 1f       	adc	r23, r23
 408:	66 0f       	add	r22, r22
 40a:	77 1f       	adc	r23, r23
 40c:	68 0f       	add	r22, r24
 40e:	79 1f       	adc	r23, r25
 410:	70 93 ab 00 	sts	0x00AB, r23	; 0x8000ab <__TEXT_REGION_LENGTH__+0x7c00ab>
 414:	60 93 aa 00 	sts	0x00AA, r22	; 0x8000aa <__TEXT_REGION_LENGTH__+0x7c00aa>
	PORTH &= (0 << PH3);
 418:	e2 e0       	ldi	r30, 0x02	; 2
 41a:	f1 e0       	ldi	r31, 0x01	; 1
 41c:	80 81       	ld	r24, Z
 41e:	10 82       	st	Z, r1
 420:	08 95       	ret

00000422 <_ZN5Motor14driveBackwardsEi>:
}

void Motor::driveBackwards(int speed)
{
	OCR4B = speed * 10;
 422:	cb 01       	movw	r24, r22
 424:	88 0f       	add	r24, r24
 426:	99 1f       	adc	r25, r25
 428:	66 0f       	add	r22, r22
 42a:	77 1f       	adc	r23, r23
 42c:	66 0f       	add	r22, r22
 42e:	77 1f       	adc	r23, r23
 430:	66 0f       	add	r22, r22
 432:	77 1f       	adc	r23, r23
 434:	68 0f       	add	r22, r24
 436:	79 1f       	adc	r23, r25
 438:	70 93 ab 00 	sts	0x00AB, r23	; 0x8000ab <__TEXT_REGION_LENGTH__+0x7c00ab>
 43c:	60 93 aa 00 	sts	0x00AA, r22	; 0x8000aa <__TEXT_REGION_LENGTH__+0x7c00aa>
	PORTH |= (1 << PH3);
 440:	e2 e0       	ldi	r30, 0x02	; 2
 442:	f1 e0       	ldi	r31, 0x01	; 1
 444:	80 81       	ld	r24, Z
 446:	88 60       	ori	r24, 0x08	; 8
 448:	80 83       	st	Z, r24
 44a:	08 95       	ret

0000044c <_ZN5Motor9driveStopEv>:
	
}

void Motor::driveStop()
{
	OCR4B = 0 * 10;
 44c:	10 92 ab 00 	sts	0x00AB, r1	; 0x8000ab <__TEXT_REGION_LENGTH__+0x7c00ab>
 450:	10 92 aa 00 	sts	0x00AA, r1	; 0x8000aa <__TEXT_REGION_LENGTH__+0x7c00aa>
 454:	08 95       	ret

00000456 <_ZN5SoundC1Ev>:
*/
#include "Sound.h"
#include "UART.h"

// default constructor
Sound::Sound()
 456:	0f 93       	push	r16
 458:	1f 93       	push	r17
 45a:	cf 93       	push	r28
 45c:	df 93       	push	r29
 45e:	1f 92       	push	r1
 460:	cd b7       	in	r28, 0x3d	; 61
 462:	de b7       	in	r29, 0x3e	; 62
 464:	8c 01       	movw	r16, r24
 466:	94 d0       	rcall	.+296    	; 0x590 <_ZN4UARTC1Ev>
{
	UART uart;
 468:	ce 01       	movw	r24, r28
 46a:	01 96       	adiw	r24, 0x01	; 1
 46c:	91 d0       	rcall	.+290    	; 0x590 <_ZN4UARTC1Ev>
	uartDriver_ = uart;
	//Set SD Card as source
	uartDriver_.SendChar(0x7E);
 46e:	6e e7       	ldi	r22, 0x7E	; 126
 470:	c8 01       	movw	r24, r16
 472:	9b d0       	rcall	.+310    	; 0x5aa <_ZN4UART8SendCharEc>
	uartDriver_.SendChar(0x09);
 474:	69 e0       	ldi	r22, 0x09	; 9
 476:	c8 01       	movw	r24, r16
 478:	98 d0       	rcall	.+304    	; 0x5aa <_ZN4UART8SendCharEc>
	uartDriver_.SendChar(0x00);
 47a:	60 e0       	ldi	r22, 0x00	; 0
 47c:	c8 01       	movw	r24, r16
 47e:	95 d0       	rcall	.+298    	; 0x5aa <_ZN4UART8SendCharEc>
	uartDriver_.SendChar(0x00);
 480:	60 e0       	ldi	r22, 0x00	; 0
 482:	c8 01       	movw	r24, r16
 484:	92 d0       	rcall	.+292    	; 0x5aa <_ZN4UART8SendCharEc>
	uartDriver_.SendChar(0x02);
 486:	62 e0       	ldi	r22, 0x02	; 2
 488:	c8 01       	movw	r24, r16
 48a:	8f d0       	rcall	.+286    	; 0x5aa <_ZN4UART8SendCharEc>
	uartDriver_.SendChar(0xFF);
 48c:	6f ef       	ldi	r22, 0xFF	; 255
 48e:	c8 01       	movw	r24, r16
 490:	8c d0       	rcall	.+280    	; 0x5aa <_ZN4UART8SendCharEc>
	uartDriver_.SendChar(0xF5);
 492:	65 ef       	ldi	r22, 0xF5	; 245
 494:	c8 01       	movw	r24, r16
 496:	89 d0       	rcall	.+274    	; 0x5aa <_ZN4UART8SendCharEc>
	uartDriver_.SendChar(0xEF);
 498:	6f ee       	ldi	r22, 0xEF	; 239
 49a:	c8 01       	movw	r24, r16
 49c:	86 d0       	rcall	.+268    	; 0x5aa <_ZN4UART8SendCharEc>
	
	//SET VOLUME 30
	uartDriver_.SendChar(0x7E);
 49e:	6e e7       	ldi	r22, 0x7E	; 126
 4a0:	c8 01       	movw	r24, r16
 4a2:	83 d0       	rcall	.+262    	; 0x5aa <_ZN4UART8SendCharEc>
	uartDriver_.SendChar(0x06);
 4a4:	66 e0       	ldi	r22, 0x06	; 6
 4a6:	c8 01       	movw	r24, r16
 4a8:	80 d0       	rcall	.+256    	; 0x5aa <_ZN4UART8SendCharEc>
	uartDriver_.SendChar(0x00);
 4aa:	60 e0       	ldi	r22, 0x00	; 0
 4ac:	c8 01       	movw	r24, r16
 4ae:	7d d0       	rcall	.+250    	; 0x5aa <_ZN4UART8SendCharEc>
	uartDriver_.SendChar(0x00);
 4b0:	60 e0       	ldi	r22, 0x00	; 0
 4b2:	c8 01       	movw	r24, r16
 4b4:	7a d0       	rcall	.+244    	; 0x5aa <_ZN4UART8SendCharEc>
	uartDriver_.SendChar(0x1E);
 4b6:	6e e1       	ldi	r22, 0x1E	; 30
 4b8:	c8 01       	movw	r24, r16
 4ba:	77 d0       	rcall	.+238    	; 0x5aa <_ZN4UART8SendCharEc>
 4bc:	6f ef       	ldi	r22, 0xFF	; 255
	uartDriver_.SendChar(0xFF);
 4be:	c8 01       	movw	r24, r16
 4c0:	74 d0       	rcall	.+232    	; 0x5aa <_ZN4UART8SendCharEc>
 4c2:	6c ed       	ldi	r22, 0xDC	; 220
 4c4:	c8 01       	movw	r24, r16
	uartDriver_.SendChar(0xDC);
 4c6:	71 d0       	rcall	.+226    	; 0x5aa <_ZN4UART8SendCharEc>
 4c8:	6f ee       	ldi	r22, 0xEF	; 239
 4ca:	c8 01       	movw	r24, r16
 4cc:	6e d0       	rcall	.+220    	; 0x5aa <_ZN4UART8SendCharEc>
	uartDriver_.SendChar(0xEF);
 4ce:	0f 90       	pop	r0
 4d0:	df 91       	pop	r29
 4d2:	cf 91       	pop	r28
 4d4:	1f 91       	pop	r17
} //Sound
 4d6:	0f 91       	pop	r16
 4d8:	08 95       	ret

000004da <_ZN5Sound9playSoundEi>:
 4da:	0f 93       	push	r16
 4dc:	1f 93       	push	r17
 4de:	cf 93       	push	r28
 4e0:	df 93       	push	r29

void Sound::playSound(int sound)
{
 4e2:	ec 01       	movw	r28, r24
 4e4:	8b 01       	movw	r16, r22
	if (sound == 1) {
 4e6:	61 30       	cpi	r22, 0x01	; 1
 4e8:	71 05       	cpc	r23, r1
 4ea:	b9 f4       	brne	.+46     	; 0x51a <_ZN5Sound9playSoundEi+0x40>
		//PLAY START SOUND
		uartDriver_.SendChar(0x7E);
 4ec:	6e e7       	ldi	r22, 0x7E	; 126
 4ee:	5d d0       	rcall	.+186    	; 0x5aa <_ZN4UART8SendCharEc>
		uartDriver_.SendChar(0x0F);
 4f0:	6f e0       	ldi	r22, 0x0F	; 15
 4f2:	ce 01       	movw	r24, r28
 4f4:	5a d0       	rcall	.+180    	; 0x5aa <_ZN4UART8SendCharEc>
		uartDriver_.SendChar(0x00);
 4f6:	60 e0       	ldi	r22, 0x00	; 0
 4f8:	ce 01       	movw	r24, r28
 4fa:	57 d0       	rcall	.+174    	; 0x5aa <_ZN4UART8SendCharEc>
		uartDriver_.SendChar(0x01);
 4fc:	61 e0       	ldi	r22, 0x01	; 1
 4fe:	ce 01       	movw	r24, r28
 500:	54 d0       	rcall	.+168    	; 0x5aa <_ZN4UART8SendCharEc>
		uartDriver_.SendChar(0x01);
 502:	61 e0       	ldi	r22, 0x01	; 1
 504:	ce 01       	movw	r24, r28
 506:	51 d0       	rcall	.+162    	; 0x5aa <_ZN4UART8SendCharEc>
		uartDriver_.SendChar(0xFF);
 508:	6f ef       	ldi	r22, 0xFF	; 255
 50a:	ce 01       	movw	r24, r28
 50c:	4e d0       	rcall	.+156    	; 0x5aa <_ZN4UART8SendCharEc>
		uartDriver_.SendChar(0xEF);
 50e:	6f ee       	ldi	r22, 0xEF	; 239
 510:	ce 01       	movw	r24, r28
 512:	4b d0       	rcall	.+150    	; 0x5aa <_ZN4UART8SendCharEc>
 514:	6f ee       	ldi	r22, 0xEF	; 239
		uartDriver_.SendChar(0xEF);
 516:	ce 01       	movw	r24, r28
 518:	48 d0       	rcall	.+144    	; 0x5aa <_ZN4UART8SendCharEc>
 51a:	02 30       	cpi	r16, 0x02	; 2
	}
	if (sound == 2) {
 51c:	11 05       	cpc	r17, r1
 51e:	c1 f4       	brne	.+48     	; 0x550 <_ZN5Sound9playSoundEi+0x76>
		//PLAY REFLEKSBRIK SOUND
		uartDriver_.SendChar(0x7E);
 520:	6e e7       	ldi	r22, 0x7E	; 126
 522:	ce 01       	movw	r24, r28
 524:	42 d0       	rcall	.+132    	; 0x5aa <_ZN4UART8SendCharEc>
		uartDriver_.SendChar(0x0F);
 526:	6f e0       	ldi	r22, 0x0F	; 15
 528:	ce 01       	movw	r24, r28
 52a:	3f d0       	rcall	.+126    	; 0x5aa <_ZN4UART8SendCharEc>
		uartDriver_.SendChar(0x00);
 52c:	60 e0       	ldi	r22, 0x00	; 0
 52e:	ce 01       	movw	r24, r28
 530:	3c d0       	rcall	.+120    	; 0x5aa <_ZN4UART8SendCharEc>
		uartDriver_.SendChar(0x01);
 532:	61 e0       	ldi	r22, 0x01	; 1
 534:	ce 01       	movw	r24, r28
 536:	39 d0       	rcall	.+114    	; 0x5aa <_ZN4UART8SendCharEc>
		uartDriver_.SendChar(0x02);
 538:	62 e0       	ldi	r22, 0x02	; 2
 53a:	ce 01       	movw	r24, r28
 53c:	36 d0       	rcall	.+108    	; 0x5aa <_ZN4UART8SendCharEc>
 53e:	6f ef       	ldi	r22, 0xFF	; 255
		uartDriver_.SendChar(0xFF);
 540:	ce 01       	movw	r24, r28
 542:	33 d0       	rcall	.+102    	; 0x5aa <_ZN4UART8SendCharEc>
 544:	6e ee       	ldi	r22, 0xEE	; 238
		uartDriver_.SendChar(0xEE);
 546:	ce 01       	movw	r24, r28
 548:	30 d0       	rcall	.+96     	; 0x5aa <_ZN4UART8SendCharEc>
 54a:	6f ee       	ldi	r22, 0xEF	; 239
		uartDriver_.SendChar(0xEF);
 54c:	ce 01       	movw	r24, r28
 54e:	2d d0       	rcall	.+90     	; 0x5aa <_ZN4UART8SendCharEc>
 550:	03 30       	cpi	r16, 0x03	; 3
	}
	if (sound == 3) {
 552:	11 05       	cpc	r17, r1
 554:	c1 f4       	brne	.+48     	; 0x586 <_ZN5Sound9playSoundEi+0xac>
		//PLAY STOP SOUND
		uartDriver_.SendChar(0x7E);
 556:	6e e7       	ldi	r22, 0x7E	; 126
 558:	ce 01       	movw	r24, r28
 55a:	27 d0       	rcall	.+78     	; 0x5aa <_ZN4UART8SendCharEc>
		uartDriver_.SendChar(0x0F);
 55c:	6f e0       	ldi	r22, 0x0F	; 15
 55e:	ce 01       	movw	r24, r28
 560:	24 d0       	rcall	.+72     	; 0x5aa <_ZN4UART8SendCharEc>
		uartDriver_.SendChar(0x00);
 562:	60 e0       	ldi	r22, 0x00	; 0
 564:	ce 01       	movw	r24, r28
 566:	21 d0       	rcall	.+66     	; 0x5aa <_ZN4UART8SendCharEc>
 568:	61 e0       	ldi	r22, 0x01	; 1
		uartDriver_.SendChar(0x01);
 56a:	ce 01       	movw	r24, r28
 56c:	1e d0       	rcall	.+60     	; 0x5aa <_ZN4UART8SendCharEc>
 56e:	63 e0       	ldi	r22, 0x03	; 3
 570:	ce 01       	movw	r24, r28
		uartDriver_.SendChar(0x03);
 572:	1b d0       	rcall	.+54     	; 0x5aa <_ZN4UART8SendCharEc>
 574:	6f ef       	ldi	r22, 0xFF	; 255
 576:	ce 01       	movw	r24, r28
 578:	18 d0       	rcall	.+48     	; 0x5aa <_ZN4UART8SendCharEc>
		uartDriver_.SendChar(0xFF);
 57a:	6d ee       	ldi	r22, 0xED	; 237
 57c:	ce 01       	movw	r24, r28
 57e:	15 d0       	rcall	.+42     	; 0x5aa <_ZN4UART8SendCharEc>
 580:	6f ee       	ldi	r22, 0xEF	; 239
		uartDriver_.SendChar(0xED);
 582:	ce 01       	movw	r24, r28
 584:	12 d0       	rcall	.+36     	; 0x5aa <_ZN4UART8SendCharEc>
 586:	df 91       	pop	r29
 588:	cf 91       	pop	r28
		uartDriver_.SendChar(0xEF);
 58a:	1f 91       	pop	r17
 58c:	0f 91       	pop	r16
 58e:	08 95       	ret

00000590 <_ZN4UARTC1Ev>:
 590:	88 e6       	ldi	r24, 0x68	; 104
	}
}
 592:	90 e0       	ldi	r25, 0x00	; 0
 594:	90 93 d5 00 	sts	0x00D5, r25	; 0x8000d5 <__TEXT_REGION_LENGTH__+0x7c00d5>
 598:	80 93 d4 00 	sts	0x00D4, r24	; 0x8000d4 <__TEXT_REGION_LENGTH__+0x7c00d4>
{
	while (!CharReady()) {}
	char Text = UDR2;
	return Text;

}
 59c:	88 e1       	ldi	r24, 0x18	; 24
 59e:	80 93 d1 00 	sts	0x00D1, r24	; 0x8000d1 <__TEXT_REGION_LENGTH__+0x7c00d1>
 5a2:	86 e0       	ldi	r24, 0x06	; 6
 5a4:	80 93 d2 00 	sts	0x00D2, r24	; 0x8000d2 <__TEXT_REGION_LENGTH__+0x7c00d2>
 5a8:	08 95       	ret

000005aa <_ZN4UART8SendCharEc>:
Parameter :
Tegn : Character for sending.
*************************************************************************/
void UART::SendChar(char Tegn)
{
	while ((UCSR2A & 0b00100000) == 0) {}
 5aa:	80 91 d0 00 	lds	r24, 0x00D0	; 0x8000d0 <__TEXT_REGION_LENGTH__+0x7c00d0>
 5ae:	85 ff       	sbrs	r24, 5
 5b0:	fc cf       	rjmp	.-8      	; 0x5aa <_ZN4UART8SendCharEc>
	UDR2 = Tegn;
 5b2:	60 93 d6 00 	sts	0x00D6, r22	; 0x8000d6 <__TEXT_REGION_LENGTH__+0x7c00d6>
 5b6:	08 95       	ret

000005b8 <__tablejump2__>:
 5b8:	ee 0f       	add	r30, r30
 5ba:	ff 1f       	adc	r31, r31
 5bc:	88 1f       	adc	r24, r24
 5be:	8b bf       	out	0x3b, r24	; 59
 5c0:	07 90       	elpm	r0, Z+
 5c2:	f6 91       	elpm	r31, Z
 5c4:	e0 2d       	mov	r30, r0
 5c6:	19 94       	eijmp

000005c8 <_exit>:
 5c8:	f8 94       	cli

000005ca <__stop_program>:
 5ca:	ff cf       	rjmp	.-2      	; 0x5ca <__stop_program>
